target datalayout = "e-m:e-p270:32:32-p271:32:32-p272:64:64-i64:64-i128:128-f80:128-n8:16:32:64-S128"
target triple = "x86_64-unknown-linux-gnu"

%"class.fmt::v10::buffered_file" = type { ptr }
%"class.fmt::v10::file" = type { i32 }

@.str = private unnamed_addr constant [13 x i8] c"Don't panic!\00", align 1
@.str.1 = private unnamed_addr constant [2 x i8] c"r\00", align 1

; Function Attrs: mustprogress nounwind uwtable
define linkonce_odr hidden noundef ptr @_ZNK3fmt3v1013buffered_file3getEv(ptr noundef nonnull align 8 dereferenceable(8) %this) #1 comdat align 2 {
entry:
  %this.addr = alloca ptr, align 8
  store ptr %this, ptr %this.addr, align 8
  %this1 = load ptr, ptr %this.addr, align 8
  %file_ = getelementptr inbounds %"class.fmt::v10::buffered_file", ptr %this1, i32 0, i32 0
  %0 = load ptr, ptr %file_, align 8
  ret ptr %0
}

; Function Attrs: mustprogress nounwind uwtable
define linkonce_odr hidden void @_ZN3fmt3v104fileC2Ev(ptr noundef nonnull align 4 dereferenceable(4) %this) unnamed_addr #1 comdat align 2 {
entry:
  %this.addr = alloca ptr, align 8
  store ptr %this, ptr %this.addr, align 8
  %this1 = load ptr, ptr %this.addr, align 8
  %fd_ = getelementptr inbounds %"class.fmt::v10::file", ptr %this1, i32 0, i32 0
  store i32 -1, ptr %fd_, align 4
  ret void
}

; Function Attrs: mustprogress uwtable
define hidden void @_Z18open_buffered_filePP8_IO_FILE(ptr noalias sret(%"class.fmt::v10::buffered_file") align 8 %agg.result, ptr noundef %fp) #0 personality ptr @__gxx_personality_v0 {
entry:
  %result.ptr = alloca ptr, align 8
  %fp.addr = alloca ptr, align 8
  %read_end = alloca %"class.fmt::v10::file", align 4
  %write_end = alloca %"class.fmt::v10::file", align 4
  %exn.slot = alloca ptr, align 8
  %ehselector.slot = alloca i32, align 4
  %nrvo = alloca i1, align 1
  store ptr %agg.result, ptr %result.ptr, align 8
  store ptr %fp, ptr %fp.addr, align 8
  call void @_ZN3fmt3v104fileC2Ev(ptr noundef nonnull align 4 dereferenceable(4) %read_end) #18
  call void @_ZN3fmt3v104fileC2Ev(ptr noundef nonnull align 4 dereferenceable(4) %write_end) #18
  invoke void @_ZN3fmt3v104file4pipeERS1_S2_(ptr noundef nonnull align 4 dereferenceable(4) %read_end, ptr noundef nonnull align 4 dereferenceable(4) %write_end)
          to label %invoke.cont unwind label %lpad

invoke.cont:                                      ; preds = %entry
  %call = invoke noundef i64 @_ZN3fmt3v104file5writeEPKvm(ptr noundef nonnull align 4 dereferenceable(4) %write_end, ptr noundef @.str, i64 noundef 12)
          to label %invoke.cont1 unwind label %lpad

invoke.cont1:                                     ; preds = %invoke.cont
  invoke void @_ZN3fmt3v104file5closeEv(ptr noundef nonnull align 4 dereferenceable(4) %write_end)
          to label %invoke.cont2 unwind label %lpad

invoke.cont2:                                     ; preds = %invoke.cont1
  store i1 false, ptr %nrvo, align 1
  invoke void @_ZN3fmt3v104file6fdopenEPKc(ptr sret(%"class.fmt::v10::buffered_file") align 8 %agg.result, ptr noundef nonnull align 4 dereferenceable(4) %read_end, ptr noundef @.str.1)
          to label %invoke.cont3 unwind label %lpad

invoke.cont3:                                     ; preds = %invoke.cont2
  %0 = load ptr, ptr %fp.addr, align 8
  %tobool = icmp ne ptr %0, null
  br i1 %tobool, label %if.then, label %if.end

if.then:                                          ; preds = %invoke.cont3
  %call4 = call noundef ptr @_ZNK3fmt3v1013buffered_file3getEv(ptr noundef nonnull align 8 dereferenceable(8) %agg.result) #18
  %1 = load ptr, ptr %fp.addr, align 8
  store ptr %call4, ptr %1, align 8
  br label %if.end

lpad:                                             ; preds = %invoke.cont2, %invoke.cont1, %invoke.cont, %entry
  %2 = landingpad { ptr, i32 }
          cleanup
  %3 = extractvalue { ptr, i32 } %2, 0
  store ptr %3, ptr %exn.slot, align 8
  %4 = extractvalue { ptr, i32 } %2, 1
  store i32 %4, ptr %ehselector.slot, align 4
  call void @_ZN3fmt3v104fileD1Ev(ptr noundef nonnull align 4 dereferenceable(4) %write_end) #18
  call void @_ZN3fmt3v104fileD1Ev(ptr noundef nonnull align 4 dereferenceable(4) %read_end) #18
  br label %eh.resume

if.end:                                           ; preds = %if.then, %invoke.cont3
  store i1 true, ptr %nrvo, align 1
  %nrvo.val = load i1, ptr %nrvo, align 1
  br i1 %nrvo.val, label %nrvo.skipdtor, label %nrvo.unused

nrvo.unused:                                      ; preds = %if.end
  call void @_ZN3fmt3v1013buffered_fileD1Ev(ptr noundef nonnull align 8 dereferenceable(8) %agg.result) #18
  br label %nrvo.skipdtor

nrvo.skipdtor:                                    ; preds = %nrvo.unused, %if.end
  call void @_ZN3fmt3v104fileD1Ev(ptr noundef nonnull align 4 dereferenceable(4) %write_end) #18
  call void @_ZN3fmt3v104fileD1Ev(ptr noundef nonnull align 4 dereferenceable(4) %read_end) #18
  ret void

eh.resume:                                        ; preds = %lpad
  %exn = load ptr, ptr %exn.slot, align 8
  %sel = load i32, ptr %ehselector.slot, align 4
  %lpad.val = insertvalue { ptr, i32 } poison, ptr %exn, 0
  %lpad.val5 = insertvalue { ptr, i32 } %lpad.val, i32 %sel, 1
  resume { ptr, i32 } %lpad.val5
}