; Function Attrs: mustprogress uwtable
define hidden void @_Z18open_buffered_filePP8_IO_FILE(ptr noalias sret(%"class.fmt::v10::buffered_file") align 8 %agg.result, ptr noundef writeonly %fp) local_unnamed_addr #0 personality ptr @__gxx_personality_v0 {
entry:
  %read_end = alloca %"class.fmt::v10::file", align 4
  %write_end = alloca %"class.fmt::v10::file", align 4
  store i32 -1, ptr %read_end, align 4
  store i32 -1, ptr %write_end, align 4
  invoke void @_ZN3fmt3v104file4pipeERS1_S2_(ptr noundef nonnull align 4 dereferenceable(4) %read_end, ptr noundef nonnull align 4 dereferenceable(4) %write_end)
          to label %invoke.cont unwind label %lpad

invoke.cont:                                      ; preds = %entry
  %call = invoke noundef i64 @_ZN3fmt3v104file5writeEPKvm(ptr noundef nonnull align 4 dereferenceable(4) %write_end, ptr noundef nonnull @.str, i64 noundef 12)
          to label %invoke.cont1 unwind label %lpad

invoke.cont1:                                     ; preds = %invoke.cont
  invoke void @_ZN3fmt3v104file5closeEv(ptr noundef nonnull align 4 dereferenceable(4) %write_end)
          to label %invoke.cont2 unwind label %lpad

invoke.cont2:                                     ; preds = %invoke.cont1
  invoke void @_ZN3fmt3v104file6fdopenEPKc(ptr sret(%"class.fmt::v10::buffered_file") align 8 %agg.result, ptr noundef nonnull align 4 dereferenceable(4) %read_end, ptr noundef nonnull @.str.1)
          to label %invoke.cont3 unwind label %lpad

invoke.cont3:                                     ; preds = %invoke.cont2
  %tobool.not = icmp eq ptr %fp, null
  br i1 %tobool.not, label %nrvo.skipdtor, label %if.then

if.then:                                          ; preds = %invoke.cont3
  %0 = load ptr, ptr %agg.result, align 8
  store ptr %0, ptr %fp, align 8
  br label %nrvo.skipdtor

lpad:                                             ; preds = %invoke.cont2, %invoke.cont1, %invoke.cont, %entry
  %1 = landingpad { ptr, i32 }
          cleanup
  call void @_ZN3fmt3v104fileD1Ev(ptr noundef nonnull align 4 dereferenceable(4) %write_end) #23
  call void @_ZN3fmt3v104fileD1Ev(ptr noundef nonnull align 4 dereferenceable(4) %read_end) #23
  resume { ptr, i32 } %1

nrvo.skipdtor:                                    ; preds = %invoke.cont3, %if.then
  call void @_ZN3fmt3v104fileD1Ev(ptr noundef nonnull align 4 dereferenceable(4) %write_end) #23
  call void @_ZN3fmt3v104fileD1Ev(ptr noundef nonnull align 4 dereferenceable(4) %read_end) #23
  ret void
}